target datalayout = "e-m:e-p270:32:32-p271:32:32-p272:64:64-i64:64-i128:128-f80:128-n8:16:32:64-S128"
target triple = "x86_64-pc-linux-gnu"

; Function Attrs: alwaysinline nounwind willreturn memory(none) uwtable
define internal zeroext i8 @av_clip_uint8_c(i32 noundef %0) #10 {
  %2 = alloca i8, align 1
  %3 = alloca i32, align 4
  store i32 %0, ptr %3, align 4, !tbaa !35
  %4 = load i32, ptr %3, align 4, !tbaa !35
  %5 = and i32 %4, -256
  %6 = icmp ne i32 %5, 0
  br i1 %6, label %7, label %12

7:                                                ; preds = %1
  %8 = load i32, ptr %3, align 4, !tbaa !35
  %9 = xor i32 %8, -1
  %10 = ashr i32 %9, 31
  %11 = trunc i32 %10 to i8
  store i8 %11, ptr %2, align 1
  br label %15

12:                                               ; preds = %1
  %13 = load i32, ptr %3, align 4, !tbaa !35
  %14 = trunc i32 %13 to i8
  store i8 %14, ptr %2, align 1
  br label %15

15:                                               ; preds = %12, %7
  %16 = load i8, ptr %2, align 1
  ret i8 %16
}

; Function Attrs: alwaysinline nounwind uwtable
define internal void @color_correlation_gbrp(ptr noundef %0, i32 noundef %1, ptr noundef %2, i32 noundef %3, i32 noundef %4, i32 noundef %5) #6 {
  %7 = alloca ptr, align 8
  %8 = alloca i32, align 4
  %9 = alloca ptr, align 8
  %10 = alloca i32, align 4
  %11 = alloca i32, align 4
  %12 = alloca i32, align 4
  %13 = alloca i32, align 4
  %14 = alloca i32, align 4
  %15 = alloca ptr, align 8
  %16 = alloca ptr, align 8
  %17 = alloca ptr, align 8
  %18 = alloca ptr, align 8
  %19 = alloca ptr, align 8
  %20 = alloca ptr, align 8
  store ptr %0, ptr %7, align 8, !tbaa !93
  store i32 %1, ptr %8, align 4, !tbaa !35
  store ptr %2, ptr %9, align 8, !tbaa !91
  store i32 %3, ptr %10, align 4, !tbaa !35
  store i32 %4, ptr %11, align 4, !tbaa !35
  store i32 %5, ptr %12, align 4, !tbaa !35
  call void @llvm.lifetime.start.p0(i64 4, ptr %13) #11
  call void @llvm.lifetime.start.p0(i64 4, ptr %14) #11
  call void @llvm.lifetime.start.p0(i64 8, ptr %15) #11
  %21 = load ptr, ptr %9, align 8, !tbaa !91
  %22 = getelementptr inbounds ptr, ptr %21, i64 0
  %23 = load ptr, ptr %22, align 8, !tbaa !61
  store ptr %23, ptr %15, align 8, !tbaa !61
  call void @llvm.lifetime.start.p0(i64 8, ptr %16) #11
  %24 = load ptr, ptr %9, align 8, !tbaa !91
  %25 = getelementptr inbounds ptr, ptr %24, i64 1
  %26 = load ptr, ptr %25, align 8, !tbaa !61
  store ptr %26, ptr %16, align 8, !tbaa !61
  call void @llvm.lifetime.start.p0(i64 8, ptr %17) #11
  %27 = load ptr, ptr %9, align 8, !tbaa !91
  %28 = getelementptr inbounds ptr, ptr %27, i64 2
  %29 = load ptr, ptr %28, align 8, !tbaa !61
  store ptr %29, ptr %17, align 8, !tbaa !61
  call void @llvm.lifetime.start.p0(i64 8, ptr %18) #11
  %30 = load ptr, ptr %7, align 8, !tbaa !93
  %31 = getelementptr inbounds ptr, ptr %30, i64 2
  %32 = load ptr, ptr %31, align 8, !tbaa !67
  store ptr %32, ptr %18, align 8, !tbaa !67
  call void @llvm.lifetime.start.p0(i64 8, ptr %19) #11
  %33 = load ptr, ptr %7, align 8, !tbaa !93
  %34 = getelementptr inbounds ptr, ptr %33, i64 0
  %35 = load ptr, ptr %34, align 8, !tbaa !67
  store ptr %35, ptr %19, align 8, !tbaa !67
  call void @llvm.lifetime.start.p0(i64 8, ptr %20) #11
  %36 = load ptr, ptr %7, align 8, !tbaa !93
  %37 = getelementptr inbounds ptr, ptr %36, i64 1
  %38 = load ptr, ptr %37, align 8, !tbaa !67
  store ptr %38, ptr %20, align 8, !tbaa !67
  store i32 0, ptr %14, align 4, !tbaa !35
  br label %39

39:                                               ; preds = %143, %6
  %40 = load i32, ptr %14, align 4, !tbaa !35
  %41 = load i32, ptr %12, align 4, !tbaa !35
  %42 = icmp slt i32 %40, %41
  br i1 %42, label %43, label %146

43:                                               ; preds = %39
  store i32 0, ptr %13, align 4, !tbaa !35
  br label %44

44:                                               ; preds = %115, %43
  %45 = load i32, ptr %13, align 4, !tbaa !35
  %46 = load i32, ptr %11, align 4, !tbaa !35
  %47 = icmp slt i32 %45, %46
  br i1 %47, label %48, label %118

48:                                               ; preds = %44
  %49 = load ptr, ptr %15, align 8, !tbaa !61
  %50 = load i32, ptr %13, align 4, !tbaa !35
  %51 = sext i32 %50 to i64
  %52 = getelementptr inbounds float, ptr %49, i64 %51
  %53 = load float, ptr %52, align 4, !tbaa !81
  %54 = load ptr, ptr %16, align 8, !tbaa !61
  %55 = load i32, ptr %13, align 4, !tbaa !35
  %56 = sext i32 %55 to i64
  %57 = getelementptr inbounds float, ptr %54, i64 %56
  %58 = load float, ptr %57, align 4, !tbaa !81
  %59 = fmul nsz float %58, 0x3FE6A09E60000000
  %60 = call nsz float @llvm.fmuladd.f32(float %53, float 0x3FE279A740000000, float %59)
  %61 = load ptr, ptr %17, align 8, !tbaa !61
  %62 = load i32, ptr %13, align 4, !tbaa !35
  %63 = sext i32 %62 to i64
  %64 = getelementptr inbounds float, ptr %61, i64 %63
  %65 = load float, ptr %64, align 4, !tbaa !81
  %66 = call nsz float @llvm.fmuladd.f32(float %65, float 0x3FDA20BD80000000, float %60)
  %67 = fptosi float %66 to i32
  %68 = call zeroext i8 @av_clip_uint8_c(i32 noundef %67) #14
  %69 = load ptr, ptr %18, align 8, !tbaa !67
  %70 = load i32, ptr %13, align 4, !tbaa !35
  %71 = sext i32 %70 to i64
  %72 = getelementptr inbounds i8, ptr %69, i64 %71
  store i8 %68, ptr %72, align 1, !tbaa !95
  %73 = load ptr, ptr %15, align 8, !tbaa !61
  %74 = load i32, ptr %13, align 4, !tbaa !35
  %75 = sext i32 %74 to i64
  %76 = getelementptr inbounds float, ptr %73, i64 %75
  %77 = load float, ptr %76, align 4, !tbaa !81
  %78 = load ptr, ptr %17, align 8, !tbaa !61
  %79 = load i32, ptr %13, align 4, !tbaa !35
  %80 = sext i32 %79 to i64
  %81 = getelementptr inbounds float, ptr %78, i64 %80
  %82 = load float, ptr %81, align 4, !tbaa !81
  %83 = fmul nsz float %82, 0xBFEA20BD80000000
  %84 = call nsz float @llvm.fmuladd.f32(float %77, float 0x3FE279A740000000, float %83)
  %85 = fptosi float %84 to i32
  %86 = call zeroext i8 @av_clip_uint8_c(i32 noundef %85) #14
  %87 = load ptr, ptr %19, align 8, !tbaa !67
  %88 = load i32, ptr %13, align 4, !tbaa !35
  %89 = sext i32 %88 to i64
  %90 = getelementptr inbounds i8, ptr %87, i64 %89
  store i8 %86, ptr %90, align 1, !tbaa !95
  %91 = load ptr, ptr %15, align 8, !tbaa !61
  %92 = load i32, ptr %13, align 4, !tbaa !35
  %93 = sext i32 %92 to i64
  %94 = getelementptr inbounds float, ptr %91, i64 %93
  %95 = load float, ptr %94, align 4, !tbaa !81
  %96 = load ptr, ptr %16, align 8, !tbaa !61
  %97 = load i32, ptr %13, align 4, !tbaa !35
  %98 = sext i32 %97 to i64
  %99 = getelementptr inbounds float, ptr %96, i64 %98
  %100 = load float, ptr %99, align 4, !tbaa !81
  %101 = fmul nsz float %100, 0xBFE6A09E60000000
  %102 = call nsz float @llvm.fmuladd.f32(float %95, float 0x3FE279A740000000, float %101)
  %103 = load ptr, ptr %17, align 8, !tbaa !61
  %104 = load i32, ptr %13, align 4, !tbaa !35
  %105 = sext i32 %104 to i64
  %106 = getelementptr inbounds float, ptr %103, i64 %105
  %107 = load float, ptr %106, align 4, !tbaa !81
  %108 = call nsz float @llvm.fmuladd.f32(float %107, float 0x3FDA20BD80000000, float %102)
  %109 = fptosi float %108 to i32
  %110 = call zeroext i8 @av_clip_uint8_c(i32 noundef %109) #14
  %111 = load ptr, ptr %20, align 8, !tbaa !67
  %112 = load i32, ptr %13, align 4, !tbaa !35
  %113 = sext i32 %112 to i64
  %114 = getelementptr inbounds i8, ptr %111, i64 %113
  store i8 %110, ptr %114, align 1, !tbaa !95
  br label %115

115:                                              ; preds = %48
  %116 = load i32, ptr %13, align 4, !tbaa !35
  %117 = add nsw i32 %116, 1
  store i32 %117, ptr %13, align 4, !tbaa !35
  br label %44, !llvm.loop !98

118:                                              ; preds = %44
  %119 = load i32, ptr %8, align 4, !tbaa !35
  %120 = load ptr, ptr %18, align 8, !tbaa !67
  %121 = sext i32 %119 to i64
  %122 = getelementptr inbounds i8, ptr %120, i64 %121
  store ptr %122, ptr %18, align 8, !tbaa !67
  %123 = load i32, ptr %8, align 4, !tbaa !35
  %124 = load ptr, ptr %19, align 8, !tbaa !67
  %125 = sext i32 %123 to i64
  %126 = getelementptr inbounds i8, ptr %124, i64 %125
  store ptr %126, ptr %19, align 8, !tbaa !67
  %127 = load i32, ptr %8, align 4, !tbaa !35
  %128 = load ptr, ptr %20, align 8, !tbaa !67
  %129 = sext i32 %127 to i64
  %130 = getelementptr inbounds i8, ptr %128, i64 %129
  store ptr %130, ptr %20, align 8, !tbaa !67
  %131 = load i32, ptr %10, align 4, !tbaa !35
  %132 = load ptr, ptr %15, align 8, !tbaa !61
  %133 = sext i32 %131 to i64
  %134 = getelementptr inbounds float, ptr %132, i64 %133
  store ptr %134, ptr %15, align 8, !tbaa !61
  %135 = load i32, ptr %10, align 4, !tbaa !35
  %136 = load ptr, ptr %16, align 8, !tbaa !61
  %137 = sext i32 %135 to i64
  %138 = getelementptr inbounds float, ptr %136, i64 %137
  store ptr %138, ptr %16, align 8, !tbaa !61
  %139 = load i32, ptr %10, align 4, !tbaa !35
  %140 = load ptr, ptr %17, align 8, !tbaa !61
  %141 = sext i32 %139 to i64
  %142 = getelementptr inbounds float, ptr %140, i64 %141
  store ptr %142, ptr %17, align 8, !tbaa !61
  br label %143

143:                                              ; preds = %118
  %144 = load i32, ptr %14, align 4, !tbaa !35
  %145 = add nsw i32 %144, 1
  store i32 %145, ptr %14, align 4, !tbaa !35
  br label %39, !llvm.loop !99

146:                                              ; preds = %39
  call void @llvm.lifetime.end.p0(i64 8, ptr %20) #11
  call void @llvm.lifetime.end.p0(i64 8, ptr %19) #11
  call void @llvm.lifetime.end.p0(i64 8, ptr %18) #11
  call void @llvm.lifetime.end.p0(i64 8, ptr %17) #11
  call void @llvm.lifetime.end.p0(i64 8, ptr %16) #11
  call void @llvm.lifetime.end.p0(i64 8, ptr %15) #11
  call void @llvm.lifetime.end.p0(i64 4, ptr %14) #11
  call void @llvm.lifetime.end.p0(i64 4, ptr %13) #11
  ret void
}