; Function Attrs: alwaysinline nofree norecurse nosync nounwind memory(readwrite, inaccessiblemem: none) uwtable
define internal void @color_correlation_gbrp(ptr noundef readonly captures(none) %0, i32 noundef %1, ptr noundef readonly captures(none) %2, i32 noundef %3, i32 noundef %4, i32 noundef %5) #7 {
  %7 = icmp sgt i32 %5, 0
  br i1 %7, label %.preheader.lr.ph, label %._crit_edge66

.preheader.lr.ph:                                 ; preds = %6
  %8 = icmp sgt i32 %4, 0
  %9 = sext i32 %1 to i64
  %10 = sext i32 %3 to i64
  br i1 %8, label %.preheader.us.preheader, label %._crit_edge66

.preheader.us.preheader:                          ; preds = %.preheader.lr.ph
  %11 = load ptr, ptr %2, align 8, !tbaa !57
  %12 = getelementptr inbounds nuw i8, ptr %2, i64 8
  %13 = load ptr, ptr %12, align 8, !tbaa !57
  %14 = getelementptr inbounds nuw i8, ptr %2, i64 16
  %15 = load ptr, ptr %14, align 8, !tbaa !57
  %16 = getelementptr inbounds nuw i8, ptr %0, i64 16
  %17 = load ptr, ptr %16, align 8, !tbaa !63
  %18 = load ptr, ptr %0, align 8, !tbaa !63
  %19 = getelementptr inbounds nuw i8, ptr %0, i64 8
  %20 = load ptr, ptr %19, align 8, !tbaa !63
  %wide.trip.count = zext nneg i32 %4 to i64
  br label %.preheader.us

.preheader.us:                                    ; preds = %.preheader.us.preheader, %._crit_edge.us
  %.065.us = phi ptr [ %55, %._crit_edge.us ], [ %20, %.preheader.us.preheader ]
  %.04564.us = phi ptr [ %54, %._crit_edge.us ], [ %18, %.preheader.us.preheader ]
  %.04663.us = phi ptr [ %53, %._crit_edge.us ], [ %17, %.preheader.us.preheader ]
  %.04762.us = phi ptr [ %58, %._crit_edge.us ], [ %15, %.preheader.us.preheader ]
  %.04861.us = phi ptr [ %57, %._crit_edge.us ], [ %13, %.preheader.us.preheader ]
  %.04960.us = phi ptr [ %56, %._crit_edge.us ], [ %11, %.preheader.us.preheader ]
  %.05059.us = phi i32 [ %59, %._crit_edge.us ], [ 0, %.preheader.us.preheader ]
  br label %21

21:                                               ; preds = %.preheader.us, %21
  %indvars.iv = phi i64 [ 0, %.preheader.us ], [ %indvars.iv.next, %21 ]
  %22 = getelementptr inbounds nuw float, ptr %.04960.us, i64 %indvars.iv
  %23 = load float, ptr %22, align 4, !tbaa !74
  %24 = getelementptr inbounds nuw float, ptr %.04861.us, i64 %indvars.iv
  %25 = load float, ptr %24, align 4, !tbaa !74
  %26 = fmul nsz float %25, 0x3FE6A09E60000000
  %27 = tail call nsz float @llvm.fmuladd.f32(float %23, float 0x3FE279A740000000, float %26)
  %28 = getelementptr inbounds nuw float, ptr %.04762.us, i64 %indvars.iv
  %29 = load float, ptr %28, align 4, !tbaa !74
  %30 = tail call nsz float @llvm.fmuladd.f32(float %29, float 0x3FDA20BD80000000, float %27)
  %31 = fptosi float %30 to i32
  %.not.i.us = icmp ult i32 %31, 256
  %isnotneg.i.us = icmp sgt i32 %31, -1
  %32 = sext i1 %isnotneg.i.us to i8
  %33 = trunc nuw i32 %31 to i8
  %.0.i.us = select i1 %.not.i.us, i8 %33, i8 %32
  %34 = getelementptr inbounds nuw i8, ptr %.04663.us, i64 %indvars.iv
  store i8 %.0.i.us, ptr %34, align 1, !tbaa !83
  %35 = load float, ptr %22, align 4, !tbaa !74
  %36 = load float, ptr %28, align 4, !tbaa !74
  %37 = fmul nsz float %36, 0xBFEA20BD80000000
  %38 = tail call nsz float @llvm.fmuladd.f32(float %35, float 0x3FE279A740000000, float %37)
  %39 = fptosi float %38 to i32
  %.not.i52.us = icmp ult i32 %39, 256
  %isnotneg.i53.us = icmp sgt i32 %39, -1
  %40 = sext i1 %isnotneg.i53.us to i8
  %41 = trunc nuw i32 %39 to i8
  %.0.i54.us = select i1 %.not.i52.us, i8 %41, i8 %40
  %42 = getelementptr inbounds nuw i8, ptr %.04564.us, i64 %indvars.iv
  store i8 %.0.i54.us, ptr %42, align 1, !tbaa !83
  %43 = load float, ptr %22, align 4, !tbaa !74
  %44 = load float, ptr %24, align 4, !tbaa !74
  %45 = fmul nsz float %44, 0xBFE6A09E60000000
  %46 = tail call nsz float @llvm.fmuladd.f32(float %43, float 0x3FE279A740000000, float %45)
  %47 = load float, ptr %28, align 4, !tbaa !74
  %48 = tail call nsz float @llvm.fmuladd.f32(float %47, float 0x3FDA20BD80000000, float %46)
  %49 = fptosi float %48 to i32
  %.not.i55.us = icmp ult i32 %49, 256
  %isnotneg.i56.us = icmp sgt i32 %49, -1
  %50 = sext i1 %isnotneg.i56.us to i8
  %51 = trunc nuw i32 %49 to i8
  %.0.i57.us = select i1 %.not.i55.us, i8 %51, i8 %50
  %52 = getelementptr inbounds nuw i8, ptr %.065.us, i64 %indvars.iv
  store i8 %.0.i57.us, ptr %52, align 1, !tbaa !83
  %indvars.iv.next = add nuw nsw i64 %indvars.iv, 1
  %exitcond.not = icmp eq i64 %indvars.iv.next, %wide.trip.count
  br i1 %exitcond.not, label %._crit_edge.us, label %21, !llvm.loop !90

._crit_edge.us:                                   ; preds = %21
  %53 = getelementptr inbounds i8, ptr %.04663.us, i64 %9
  %54 = getelementptr inbounds i8, ptr %.04564.us, i64 %9
  %55 = getelementptr inbounds i8, ptr %.065.us, i64 %9
  %56 = getelementptr inbounds float, ptr %.04960.us, i64 %10
  %57 = getelementptr inbounds float, ptr %.04861.us, i64 %10
  %58 = getelementptr inbounds float, ptr %.04762.us, i64 %10
  %59 = add nuw nsw i32 %.05059.us, 1
  %exitcond69.not = icmp eq i32 %59, %5
  br i1 %exitcond69.not, label %._crit_edge66, label %.preheader.us, !llvm.loop !91

._crit_edge66:                                    ; preds = %._crit_edge.us, %.preheader.lr.ph, %6
  ret void
}